target datalayout = "e-m:e-p270:32:32-p271:32:32-p272:64:64-i64:64-i128:128-f80:128-n8:16:32:64-S128"
target triple = "x86_64-unknown-linux-gnu"

%struct.PRManagerHelper = type { %struct.PRManager, ptr, %struct.QemuMutex, ptr }
%struct.PRManager = type { %struct.Object }
%struct.Object = type { ptr, ptr, ptr, i32, ptr }
%struct.QemuMutex = type { %union.pthread_mutex_t, i8 }
%union.pthread_mutex_t = type { %struct.__pthread_mutex_s }
%struct.__pthread_mutex_s = type { i32, i32, i32, i32, i32, i16, i16, %struct.__pthread_internal_list }
%struct.__pthread_internal_list = type { ptr, ptr }
%struct.SocketAddress = type { i32, %union.anon }
%union.anon = type { %struct.InetSocketAddress }
%struct.InetSocketAddress = type { ptr, ptr, i8, i8, i8, i16, i8, i8, i8, i8, i8, i8, i8, i8 }
%struct.UnixSocketAddress = type { ptr, i8, i8, i8, i8 }

@.str = private unnamed_addr constant [18 x i8] c"pr-manager-helper\00", align 1
@.str.2 = private unnamed_addr constant [33 x i8] c"../qemu/scsi/pr-manager-helper.c\00", align 1
@.str.7 = private unnamed_addr constant [13 x i8] c"!pr_mgr->ioc\00", align 1
@__PRETTY_FUNCTION__.pr_manager_helper_initialize = private unnamed_addr constant [62 x i8] c"int pr_manager_helper_initialize(PRManagerHelper *, Error **)\00", align 1
@.str.8 = private unnamed_addr constant [12 x i8] c"qio-channel\00", align 1
@.str.9 = private unnamed_addr constant [99 x i8] c"/home/dtcxzyw/WorkSpace/Projects/compilers/llvm-opt-benchmark/bench/qemu/qemu/include/io/channel.h\00", align 1
@__func__.QIO_CHANNEL = private unnamed_addr constant [12 x i8] c"QIO_CHANNEL\00", align 1

; Function Attrs: nounwind sspstrong uwtable
define internal void @pr_manager_send_status_changed_event(ptr noundef %pr_mgr) #0 {
entry:
  %pr_mgr.addr = alloca ptr, align 8
  %id = alloca ptr, align 8
  store ptr %pr_mgr, ptr %pr_mgr.addr, align 8
  %0 = load ptr, ptr %pr_mgr.addr, align 8
  %call = call ptr @object_get_canonical_path_component(ptr noundef %0)
  store ptr %call, ptr %id, align 8
  %1 = load ptr, ptr %id, align 8
  %tobool = icmp ne ptr %1, null
  br i1 %tobool, label %if.then, label %if.end

if.then:                                          ; preds = %entry
  %2 = load ptr, ptr %id, align 8
  %3 = load ptr, ptr %pr_mgr.addr, align 8
  %ioc = getelementptr inbounds %struct.PRManagerHelper, ptr %3, i32 0, i32 3
  %4 = load ptr, ptr %ioc, align 8
  %tobool1 = icmp ne ptr %4, null
  %lnot = xor i1 %tobool1, true
  %lnot2 = xor i1 %lnot, true
  call void @qapi_event_send_pr_manager_status_changed(ptr noundef %2, i1 noundef zeroext %lnot2)
  br label %if.end

if.end:                                           ; preds = %if.then, %entry
  ret void
}

; Function Attrs: nounwind sspstrong uwtable
define internal i32 @pr_manager_helper_read(ptr noundef %pr_mgr, ptr noundef %buf, i32 noundef %sz, ptr noundef %errp) #0 {
entry:
  %retval = alloca i32, align 4
  %pr_mgr.addr = alloca ptr, align 8
  %buf.addr = alloca ptr, align 8
  %sz.addr = alloca i32, align 4
  %errp.addr = alloca ptr, align 8
  %r = alloca i64, align 8
  store ptr %pr_mgr, ptr %pr_mgr.addr, align 8
  store ptr %buf, ptr %buf.addr, align 8
  store i32 %sz, ptr %sz.addr, align 4
  store ptr %errp, ptr %errp.addr, align 8
  %0 = load ptr, ptr %pr_mgr.addr, align 8
  %ioc = getelementptr inbounds %struct.PRManagerHelper, ptr %0, i32 0, i32 3
  %1 = load ptr, ptr %ioc, align 8
  %2 = load ptr, ptr %buf.addr, align 8
  %3 = load i32, ptr %sz.addr, align 4
  %conv = sext i32 %3 to i64
  %4 = load ptr, ptr %errp.addr, align 8
  %call = call i32 @qio_channel_read_all(ptr noundef %1, ptr noundef %2, i64 noundef %conv, ptr noundef %4)
  %conv1 = sext i32 %call to i64
  store i64 %conv1, ptr %r, align 8
  %5 = load i64, ptr %r, align 8
  %cmp = icmp slt i64 %5, 0
  br i1 %cmp, label %if.then, label %if.end

if.then:                                          ; preds = %entry
  %6 = load ptr, ptr %pr_mgr.addr, align 8
  %ioc3 = getelementptr inbounds %struct.PRManagerHelper, ptr %6, i32 0, i32 3
  %7 = load ptr, ptr %ioc3, align 8
  call void @object_unref(ptr noundef %7)
  %8 = load ptr, ptr %pr_mgr.addr, align 8
  %ioc4 = getelementptr inbounds %struct.PRManagerHelper, ptr %8, i32 0, i32 3
  store ptr null, ptr %ioc4, align 8
  %9 = load ptr, ptr %pr_mgr.addr, align 8
  call void @pr_manager_send_status_changed_event(ptr noundef %9)
  store i32 -22, ptr %retval, align 4
  br label %return

if.end:                                           ; preds = %entry
  store i32 0, ptr %retval, align 4
  br label %return

return:                                           ; preds = %if.end, %if.then
  %10 = load i32, ptr %retval, align 4
  ret i32 %10
}

; Function Attrs: nounwind sspstrong uwtable
define internal ptr @QIO_CHANNEL(ptr noundef %obj) #0 {
entry:
  %obj.addr = alloca ptr, align 8
  store ptr %obj, ptr %obj.addr, align 8
  %0 = load ptr, ptr %obj.addr, align 8
  %call = call ptr @object_dynamic_cast_assert(ptr noundef %0, ptr noundef @.str.8, ptr noundef @.str.9, i32 noundef 30, ptr noundef @__func__.QIO_CHANNEL)
  ret ptr %call
}

; Function Attrs: nounwind sspstrong uwtable
define internal i32 @pr_manager_helper_initialize(ptr noundef %pr_mgr, ptr noundef %errp) #0 {
entry:
  %retval = alloca i32, align 4
  %pr_mgr.addr = alloca ptr, align 8
  %errp.addr = alloca ptr, align 8
  %path = alloca ptr, align 8
  %saddr = alloca %struct.SocketAddress, align 8
  %sioc = alloca ptr, align 8
  %local_err = alloca ptr, align 8
  %flags = alloca i32, align 4
  %r = alloca i32, align 4
  store ptr %pr_mgr, ptr %pr_mgr.addr, align 8
  store ptr %errp, ptr %errp.addr, align 8
  %0 = load ptr, ptr %pr_mgr.addr, align 8
  %path1 = getelementptr inbounds %struct.PRManagerHelper, ptr %0, i32 0, i32 1
  %1 = load ptr, ptr %path1, align 8
  %call = call noalias ptr @g_strdup(ptr noundef %1)
  store ptr %call, ptr %path, align 8
  %type = getelementptr inbounds %struct.SocketAddress, ptr %saddr, i32 0, i32 0
  store i32 1, ptr %type, align 8
  %u = getelementptr inbounds %struct.SocketAddress, ptr %saddr, i32 0, i32 1
  call void @llvm.memset.p0.i64(ptr align 8 %u, i8 0, i64 32, i1 false)
  %path2 = getelementptr inbounds %struct.UnixSocketAddress, ptr %u, i32 0, i32 0
  %2 = load ptr, ptr %path, align 8
  store ptr %2, ptr %path2, align 8
  %call3 = call ptr @qio_channel_socket_new()
  store ptr %call3, ptr %sioc, align 8
  store ptr null, ptr %local_err, align 8
  %3 = load ptr, ptr %pr_mgr.addr, align 8
  %ioc = getelementptr inbounds %struct.PRManagerHelper, ptr %3, i32 0, i32 3
  %4 = load ptr, ptr %ioc, align 8
  %tobool = icmp ne ptr %4, null
  br i1 %tobool, label %if.else, label %if.then

if.then:                                          ; preds = %entry
  br label %if.end

if.else:                                          ; preds = %entry
  call void @__assert_fail(ptr noundef @.str.7, ptr noundef @.str.2, i32 noundef 113, ptr noundef @__PRETTY_FUNCTION__.pr_manager_helper_initialize) #8
  unreachable

if.end:                                           ; preds = %if.then
  %5 = load ptr, ptr %sioc, align 8
  %call4 = call ptr @QIO_CHANNEL(ptr noundef %5)
  call void @qio_channel_set_name(ptr noundef %call4, ptr noundef @.str)
  %6 = load ptr, ptr %sioc, align 8
  %call5 = call i32 @qio_channel_socket_connect_sync(ptr noundef %6, ptr noundef %saddr, ptr noundef %local_err)
  %7 = load ptr, ptr %path, align 8
  call void @g_free(ptr noundef %7)
  %8 = load ptr, ptr %local_err, align 8
  %tobool6 = icmp ne ptr %8, null
  br i1 %tobool6, label %if.then7, label %if.end8

if.then7:                                         ; preds = %if.end
  %9 = load ptr, ptr %sioc, align 8
  call void @object_unref(ptr noundef %9)
  %10 = load ptr, ptr %errp.addr, align 8
  %11 = load ptr, ptr %local_err, align 8
  call void @error_propagate(ptr noundef %10, ptr noundef %11)
  store i32 -107, ptr %retval, align 4
  br label %return

if.end8:                                          ; preds = %if.end
  %12 = load ptr, ptr %sioc, align 8
  %call9 = call ptr @QIO_CHANNEL(ptr noundef %12)
  call void @qio_channel_set_delay(ptr noundef %call9, i1 noundef zeroext false)
  %13 = load ptr, ptr %sioc, align 8
  %call10 = call ptr @QIO_CHANNEL(ptr noundef %13)
  %14 = load ptr, ptr %pr_mgr.addr, align 8
  %ioc11 = getelementptr inbounds %struct.PRManagerHelper, ptr %14, i32 0, i32 3
  store ptr %call10, ptr %ioc11, align 8
  %15 = load ptr, ptr %pr_mgr.addr, align 8
  %16 = load ptr, ptr %errp.addr, align 8
  %call12 = call i32 @pr_manager_helper_read(ptr noundef %15, ptr noundef %flags, i32 noundef 4, ptr noundef %16)
  store i32 %call12, ptr %r, align 4
  %17 = load i32, ptr %r, align 4
  %cmp = icmp slt i32 %17, 0
  br i1 %cmp, label %if.then13, label %if.end14

if.then13:                                        ; preds = %if.end8
  br label %out_close

if.end14:                                         ; preds = %if.end8
  store i32 0, ptr %flags, align 4
  %18 = load ptr, ptr %pr_mgr.addr, align 8
  %19 = load ptr, ptr %errp.addr, align 8
  %call15 = call i32 @pr_manager_helper_write(ptr noundef %18, i32 noundef -1, ptr noundef %flags, i32 noundef 4, ptr noundef %19)
  store i32 %call15, ptr %r, align 4
  %20 = load i32, ptr %r, align 4
  %cmp16 = icmp slt i32 %20, 0
  br i1 %cmp16, label %if.then17, label %if.end18

if.then17:                                        ; preds = %if.end14
  br label %out_close

if.end18:                                         ; preds = %if.end14
  %21 = load ptr, ptr %pr_mgr.addr, align 8
  call void @pr_manager_send_status_changed_event(ptr noundef %21)
  store i32 0, ptr %retval, align 4
  br label %return

out_close:                                        ; preds = %if.then17, %if.then13
  %22 = load ptr, ptr %pr_mgr.addr, align 8
  %ioc19 = getelementptr inbounds %struct.PRManagerHelper, ptr %22, i32 0, i32 3
  %23 = load ptr, ptr %ioc19, align 8
  call void @object_unref(ptr noundef %23)
  %24 = load ptr, ptr %pr_mgr.addr, align 8
  %ioc20 = getelementptr inbounds %struct.PRManagerHelper, ptr %24, i32 0, i32 3
  store ptr null, ptr %ioc20, align 8
  %25 = load i32, ptr %r, align 4
  store i32 %25, ptr %retval, align 4
  br label %return

return:                                           ; preds = %out_close, %if.end18, %if.then7
  %26 = load i32, ptr %retval, align 4
  ret i32 %26
}