; Function Attrs: nounwind sspstrong uwtable
define internal fastcc range(i32 -107, 1) i32 @pr_manager_helper_initialize(ptr noundef %pr_mgr, ptr noundef %errp) unnamed_addr #0 {
entry:
  %saddr = alloca %struct.SocketAddress, align 8
  %local_err = alloca ptr, align 8
  %flags = alloca i32, align 4
  %path1 = getelementptr inbounds nuw i8, ptr %pr_mgr, i64 40
  %0 = load ptr, ptr %path1, align 8
  %call = tail call noalias ptr @g_strdup(ptr noundef %0) #7
  store i32 1, ptr %saddr, align 8
  %u = getelementptr inbounds nuw i8, ptr %saddr, i64 8
  %1 = getelementptr inbounds nuw i8, ptr %saddr, i64 16
  call void @llvm.memset.p0.i64(ptr noundef nonnull align 8 dereferenceable(32) %1, i8 0, i64 24, i1 false)
  store ptr %call, ptr %u, align 8
  %call3 = tail call ptr @qio_channel_socket_new() #7
  store ptr null, ptr %local_err, align 8
  %ioc = getelementptr inbounds nuw i8, ptr %pr_mgr, i64 96
  %2 = load ptr, ptr %ioc, align 8
  %tobool.not = icmp eq ptr %2, null
  br i1 %tobool.not, label %if.end, label %if.else

if.else:                                          ; preds = %entry
  tail call void @__assert_fail(ptr noundef nonnull @.str.7, ptr noundef nonnull @.str.2, i32 noundef 113, ptr noundef nonnull @__PRETTY_FUNCTION__.pr_manager_helper_initialize) #8
  unreachable

if.end:                                           ; preds = %entry
  %call.i = tail call ptr @object_dynamic_cast_assert(ptr noundef %call3, ptr noundef nonnull @.str.8, ptr noundef nonnull @.str.9, i32 noundef 30, ptr noundef nonnull @__func__.QIO_CHANNEL) #7
  tail call void @qio_channel_set_name(ptr noundef %call.i, ptr noundef nonnull @.str) #7
  %call5 = call i32 @qio_channel_socket_connect_sync(ptr noundef %call3, ptr noundef nonnull %saddr, ptr noundef nonnull %local_err) #7
  call void @g_free(ptr noundef %call) #7
  %3 = load ptr, ptr %local_err, align 8
  %tobool6.not = icmp eq ptr %3, null
  br i1 %tobool6.not, label %if.end8, label %if.then7

if.then7:                                         ; preds = %if.end
  call void @object_unref(ptr noundef %call3) #7
  %4 = load ptr, ptr %local_err, align 8
  call void @error_propagate(ptr noundef %errp, ptr noundef %4) #7
  br label %return

if.end8:                                          ; preds = %if.end
  %call.i17 = call ptr @object_dynamic_cast_assert(ptr noundef %call3, ptr noundef nonnull @.str.8, ptr noundef nonnull @.str.9, i32 noundef 30, ptr noundef nonnull @__func__.QIO_CHANNEL) #7
  call void @qio_channel_set_delay(ptr noundef %call.i17, i1 noundef zeroext false) #7
  %call.i18 = call ptr @object_dynamic_cast_assert(ptr noundef %call3, ptr noundef nonnull @.str.8, ptr noundef nonnull @.str.9, i32 noundef 30, ptr noundef nonnull @__func__.QIO_CHANNEL) #7
  store ptr %call.i18, ptr %ioc, align 8
  %call.i19 = call i32 @qio_channel_read_all(ptr noundef %call.i18, ptr noundef nonnull %flags, i64 noundef 4, ptr noundef %errp) #7
  %cmp.i = icmp slt i32 %call.i19, 0
  br i1 %cmp.i, label %if.then.i, label %if.end14

if.then.i:                                        ; preds = %if.end8
  %5 = load ptr, ptr %ioc, align 8
  call void @object_unref(ptr noundef %5) #7
  store ptr null, ptr %ioc, align 8
  %call.i.i = call ptr @object_get_canonical_path_component(ptr noundef nonnull %pr_mgr) #7
  %tobool.not.i.i = icmp eq ptr %call.i.i, null
  br i1 %tobool.not.i.i, label %out_close, label %if.then.i.i

if.then.i.i:                                      ; preds = %if.then.i
  %6 = load ptr, ptr %ioc, align 8
  %tobool1.i.i = icmp ne ptr %6, null
  call void @qapi_event_send_pr_manager_status_changed(ptr noundef nonnull %call.i.i, i1 noundef zeroext %tobool1.i.i) #7
  br label %out_close

if.end14:                                         ; preds = %if.end8
  store i32 0, ptr %flags, align 4
  %call15 = call fastcc i32 @pr_manager_helper_write(ptr noundef nonnull %pr_mgr, i32 noundef -1, ptr noundef nonnull %flags, i32 noundef 4, ptr noundef %errp)
  %cmp16 = icmp slt i32 %call15, 0
  br i1 %cmp16, label %out_close, label %if.end18

if.end18:                                         ; preds = %if.end14
  %call.i20 = call ptr @object_get_canonical_path_component(ptr noundef nonnull %pr_mgr) #7
  %tobool.not.i = icmp eq ptr %call.i20, null
  br i1 %tobool.not.i, label %return, label %if.then.i21

if.then.i21:                                      ; preds = %if.end18
  %7 = load ptr, ptr %ioc, align 8
  %tobool1.i = icmp ne ptr %7, null
  call void @qapi_event_send_pr_manager_status_changed(ptr noundef nonnull %call.i20, i1 noundef zeroext %tobool1.i) #7
  br label %return

out_close:                                        ; preds = %if.then.i.i, %if.then.i, %if.end14
  %r.0 = phi i32 [ %call15, %if.end14 ], [ -22, %if.then.i ], [ -22, %if.then.i.i ]
  %8 = load ptr, ptr %ioc, align 8
  call void @object_unref(ptr noundef %8) #7
  store ptr null, ptr %ioc, align 8
  br label %return

return:                                           ; preds = %if.then.i21, %if.end18, %out_close, %if.then7
  %retval.0 = phi i32 [ -107, %if.then7 ], [ %r.0, %out_close ], [ 0, %if.end18 ], [ 0, %if.then.i21 ]
  ret i32 %retval.0
}